target datalayout = "e-m:e-p270:32:32-p271:32:32-p272:64:64-i64:64-i128:128-f80:128-n8:16:32:64-S128"
target triple = "x86_64-pc-linux-gnu"

%"struct.Luau::CodeGen::A64::RegisterA64" = type { i8 }
%"class.Luau::CodeGen::A64::AssemblyBuilderA64" = type { %"class.std::vector", %"class.std::vector.0", %"class.std::__cxx11::basic_string", i8, i32, i32, %"class.std::vector.8", %"class.std::vector.0", i8, i8, i64, ptr, ptr }
%"class.std::vector" = type { %"struct.std::_Vector_base" }
%"struct.std::_Vector_base" = type { %"struct.std::_Vector_base<unsigned char, std::allocator<unsigned char>>::_Vector_impl" }
%"struct.std::_Vector_base<unsigned char, std::allocator<unsigned char>>::_Vector_impl" = type { %"struct.std::_Vector_base<unsigned char, std::allocator<unsigned char>>::_Vector_impl_data" }
%"struct.std::_Vector_base<unsigned char, std::allocator<unsigned char>>::_Vector_impl_data" = type { ptr, ptr, ptr }
%"class.std::__cxx11::basic_string" = type { %"struct.std::__cxx11::basic_string<char>::_Alloc_hider", i64, %union.anon }
%"struct.std::__cxx11::basic_string<char>::_Alloc_hider" = type { ptr }
%union.anon = type { i64, [8 x i8] }
%"class.std::vector.8" = type { %"struct.std::_Vector_base.9" }
%"struct.std::_Vector_base.9" = type { %"struct.std::_Vector_base<Luau::CodeGen::A64::AssemblyBuilderA64::Patch, std::allocator<Luau::CodeGen::A64::AssemblyBuilderA64::Patch>>::_Vector_impl" }
%"struct.std::_Vector_base<Luau::CodeGen::A64::AssemblyBuilderA64::Patch, std::allocator<Luau::CodeGen::A64::AssemblyBuilderA64::Patch>>::_Vector_impl" = type { %"struct.std::_Vector_base<Luau::CodeGen::A64::AssemblyBuilderA64::Patch, std::allocator<Luau::CodeGen::A64::AssemblyBuilderA64::Patch>>::_Vector_impl_data" }
%"struct.std::_Vector_base<Luau::CodeGen::A64::AssemblyBuilderA64::Patch, std::allocator<Luau::CodeGen::A64::AssemblyBuilderA64::Patch>>::_Vector_impl_data" = type { ptr, ptr, ptr }
%"class.std::vector.0" = type { %"struct.std::_Vector_base.1" }
%"struct.std::_Vector_base.1" = type { %"struct.std::_Vector_base<unsigned int, std::allocator<unsigned int>>::_Vector_impl" }
%"struct.std::_Vector_base<unsigned int, std::allocator<unsigned int>>::_Vector_impl" = type { %"struct.std::_Vector_base<unsigned int, std::allocator<unsigned int>>::_Vector_impl_data" }
%"struct.std::_Vector_base<unsigned int, std::allocator<unsigned int>>::_Vector_impl_data" = type { ptr, ptr, ptr }
%"struct.Luau::CodeGen::Label" = type { i32, i32 }

@.str.46 = private unnamed_addr constant [5 x i8] c"tbnz\00", align 1

; Function Attrs: mustprogress uwtable
define dso_local void @_ZN4Luau7CodeGen3A6418AssemblyBuilderA646commitEv(ptr noundef nonnull align 8 dereferenceable(176) %0) #0 align 2 {
  %2 = alloca ptr, align 8
  store ptr %0, ptr %2, align 8, !tbaa !4
  %3 = load ptr, ptr %2, align 8
  %4 = getelementptr inbounds nuw %"class.Luau::CodeGen::A64::AssemblyBuilderA64", ptr %3, i32 0, i32 12
  %5 = load ptr, ptr %4, align 8, !tbaa !41
  %6 = getelementptr inbounds nuw %"class.Luau::CodeGen::A64::AssemblyBuilderA64", ptr %3, i32 0, i32 11
  %7 = load ptr, ptr %6, align 8, !tbaa !40
  %8 = icmp eq ptr %5, %7
  br i1 %8, label %9, label %10

9:                                                ; preds = %1
  call void @_ZN4Luau7CodeGen3A6418AssemblyBuilderA646extendEv(ptr noundef nonnull align 8 dereferenceable(176) %3)
  br label %10

10:                                               ; preds = %9, %1
  ret void
}

; Function Attrs: mustprogress nounwind uwtable
define dso_local void @_ZN4Luau7CodeGen3A6418AssemblyBuilderA645placeEj(ptr noundef nonnull align 8 dereferenceable(176) %0, i32 noundef %1) #1 align 2 {
  %3 = alloca ptr, align 8
  %4 = alloca i32, align 4
  store ptr %0, ptr %3, align 8, !tbaa !4
  store i32 %1, ptr %4, align 4, !tbaa !11
  %5 = load ptr, ptr %3, align 8
  %6 = load i32, ptr %4, align 4, !tbaa !11
  %7 = getelementptr inbounds nuw %"class.Luau::CodeGen::A64::AssemblyBuilderA64", ptr %5, i32 0, i32 11
  %8 = load ptr, ptr %7, align 8, !tbaa !40
  %9 = getelementptr inbounds nuw i32, ptr %8, i32 1
  store ptr %9, ptr %7, align 8, !tbaa !40
  store i32 %6, ptr %8, align 4, !tbaa !11
  ret void
}

; Function Attrs: mustprogress uwtable
define dso_local void @_ZN4Luau7CodeGen3A6418AssemblyBuilderA648placeBTREPKcRNS0_5LabelEhNS1_11RegisterA64Eh(ptr noundef nonnull align 8 dereferenceable(176) %0, ptr noundef %1, ptr noundef nonnull align 4 dereferenceable(8) %2, i8 noundef zeroext %3, i8 %4, i8 noundef zeroext %5) #0 align 2 {
  %7 = alloca %"struct.Luau::CodeGen::A64::RegisterA64", align 1
  %8 = alloca ptr, align 8
  %9 = alloca ptr, align 8
  %10 = alloca ptr, align 8
  %11 = alloca i8, align 1
  %12 = alloca i8, align 1
  %13 = alloca %"struct.Luau::CodeGen::A64::RegisterA64", align 1
  %14 = alloca %"struct.Luau::CodeGen::Label", align 4
  %15 = getelementptr inbounds nuw %"struct.Luau::CodeGen::A64::RegisterA64", ptr %7, i32 0, i32 0
  store i8 %4, ptr %15, align 1
  store ptr %0, ptr %8, align 8, !tbaa !4
  store ptr %1, ptr %9, align 8, !tbaa !61
  store ptr %2, ptr %10, align 8, !tbaa !74
  store i8 %3, ptr %11, align 1, !tbaa !58
  store i8 %5, ptr %12, align 1, !tbaa !58
  %16 = load ptr, ptr %8, align 8
  %17 = load i8, ptr %7, align 1
  %18 = lshr i8 %17, 3
  %19 = zext i8 %18 to i32
  %20 = load i8, ptr %12, align 1, !tbaa !58
  %21 = zext i8 %20 to i32
  %22 = and i32 %21, 31
  %23 = shl i32 %22, 19
  %24 = or i32 %19, %23
  %25 = load i8, ptr %11, align 1, !tbaa !58
  %26 = zext i8 %25 to i32
  %27 = shl i32 %26, 24
  %28 = or i32 %24, %27
  %29 = load i8, ptr %12, align 1, !tbaa !58
  %30 = zext i8 %29 to i32
  %31 = ashr i32 %30, 5
  %32 = shl i32 %31, 31
  %33 = or i32 %28, %32
  call void @_ZN4Luau7CodeGen3A6418AssemblyBuilderA645placeEj(ptr noundef nonnull align 8 dereferenceable(176) %16, i32 noundef %33)
  call void @_ZN4Luau7CodeGen3A6418AssemblyBuilderA646commitEv(ptr noundef nonnull align 8 dereferenceable(176) %16)
  %34 = load ptr, ptr %10, align 8, !tbaa !74
  call void @_ZN4Luau7CodeGen3A6418AssemblyBuilderA6410patchLabelERNS0_5LabelENS2_5Patch4KindE(ptr noundef nonnull align 8 dereferenceable(176) %16, ptr noundef nonnull align 4 dereferenceable(8) %34, i32 noundef 2)
  %35 = getelementptr inbounds nuw %"class.Luau::CodeGen::A64::AssemblyBuilderA64", ptr %16, i32 0, i32 3
  %36 = load i8, ptr %35, align 8, !tbaa !15, !range !13, !noundef !14
  %37 = trunc i8 %36 to i1
  br i1 %37, label %38, label %46

38:                                               ; preds = %6
  %39 = load ptr, ptr %9, align 8, !tbaa !61
  call void @llvm.memcpy.p0.p0.i64(ptr align 1 %13, ptr align 1 %7, i64 1, i1 false), !tbaa.struct !57
  %40 = load ptr, ptr %10, align 8, !tbaa !74
  call void @llvm.memcpy.p0.p0.i64(ptr align 4 %14, ptr align 4 %40, i64 8, i1 false), !tbaa.struct !76
  %41 = load i8, ptr %12, align 1, !tbaa !58
  %42 = zext i8 %41 to i32
  %43 = getelementptr inbounds nuw %"struct.Luau::CodeGen::A64::RegisterA64", ptr %13, i32 0, i32 0
  %44 = load i8, ptr %43, align 1
  %45 = load i64, ptr %14, align 4
  call void @_ZN4Luau7CodeGen3A6418AssemblyBuilderA643logEPKcNS1_11RegisterA64ENS0_5LabelEi(ptr noundef nonnull align 8 dereferenceable(176) %16, ptr noundef %39, i8 %44, i64 %45, i32 noundef %42)
  br label %46

46:                                               ; preds = %38, %6
  ret void
}

; Function Attrs: mustprogress uwtable
define dso_local void @_ZN4Luau7CodeGen3A6418AssemblyBuilderA644tbnzENS1_11RegisterA64EhRNS0_5LabelE(ptr noundef nonnull align 8 dereferenceable(176) %0, i8 %1, i8 noundef zeroext %2, ptr noundef nonnull align 4 dereferenceable(8) %3) #0 align 2 {
  %5 = alloca %"struct.Luau::CodeGen::A64::RegisterA64", align 1
  %6 = alloca ptr, align 8
  %7 = alloca i8, align 1
  %8 = alloca ptr, align 8
  %9 = alloca %"struct.Luau::CodeGen::A64::RegisterA64", align 1
  %10 = getelementptr inbounds nuw %"struct.Luau::CodeGen::A64::RegisterA64", ptr %5, i32 0, i32 0
  store i8 %1, ptr %10, align 1
  store ptr %0, ptr %6, align 8, !tbaa !4
  store i8 %2, ptr %7, align 1, !tbaa !58
  store ptr %3, ptr %8, align 8, !tbaa !74
  %11 = load ptr, ptr %6, align 8
  %12 = load ptr, ptr %8, align 8, !tbaa !74
  call void @llvm.memcpy.p0.p0.i64(ptr align 1 %9, ptr align 1 %5, i64 1, i1 false), !tbaa.struct !57
  %13 = load i8, ptr %7, align 1, !tbaa !58
  %14 = getelementptr inbounds nuw %"struct.Luau::CodeGen::A64::RegisterA64", ptr %9, i32 0, i32 0
  %15 = load i8, ptr %14, align 1
  call void @_ZN4Luau7CodeGen3A6418AssemblyBuilderA648placeBTREPKcRNS0_5LabelEhNS1_11RegisterA64Eh(ptr noundef nonnull align 8 dereferenceable(176) %11, ptr noundef @.str.46, ptr noundef nonnull align 4 dereferenceable(8) %12, i8 noundef zeroext 55, i8 %15, i8 noundef zeroext %13)
  ret void
}