; Function Attrs: mustprogress uwtable
define dso_local void @_ZN4Luau7CodeGen3A6418AssemblyBuilderA644tbnzENS1_11RegisterA64EhRNS0_5LabelE(ptr noundef nonnull align 8 dereferenceable(176) %0, i8 %1, i8 noundef zeroext %2, ptr noundef nonnull align 4 captures(none) dereferenceable(8) %3) local_unnamed_addr #0 align 2 {
  %5 = lshr i8 %1, 3
  %6 = zext nneg i8 %5 to i32
  %7 = zext i8 %2 to i32
  %8 = shl nuw nsw i32 %7, 19
  %9 = or disjoint i32 %8, %6
  %10 = shl i32 %7, 26
  %11 = and i32 %10, -2147483648
  %12 = or disjoint i32 %9, %11
  %13 = or i32 %12, 922746880
  %14 = getelementptr inbounds nuw i8, ptr %0, i64 160
  %15 = load ptr, ptr %14, align 8, !tbaa !39
  %16 = getelementptr inbounds nuw i8, ptr %15, i64 4
  store ptr %16, ptr %14, align 8, !tbaa !39
  store i32 %13, ptr %15, align 4, !tbaa !48
  %17 = getelementptr inbounds nuw i8, ptr %0, i64 168
  %18 = load ptr, ptr %17, align 8, !tbaa !40
  %19 = icmp eq ptr %18, %16
  br i1 %19, label %20, label %_ZN4Luau7CodeGen3A6418AssemblyBuilderA646commitEv.exit.i

20:                                               ; preds = %4
  tail call void @_ZN4Luau7CodeGen3A6418AssemblyBuilderA646extendEv(ptr noundef nonnull align 8 dereferenceable(176) %0)
  br label %_ZN4Luau7CodeGen3A6418AssemblyBuilderA646commitEv.exit.i

_ZN4Luau7CodeGen3A6418AssemblyBuilderA646commitEv.exit.i: ; preds = %20, %4
  tail call void @_ZN4Luau7CodeGen3A6418AssemblyBuilderA6410patchLabelERNS0_5LabelENS2_5Patch4KindE(ptr noundef nonnull align 8 dereferenceable(176) %0, ptr noundef nonnull align 4 dereferenceable(8) %3, i32 noundef 2)
  %21 = getelementptr inbounds nuw i8, ptr %0, i64 80
  %22 = load i8, ptr %21, align 8, !tbaa !14, !range !46, !noundef !47
  %23 = trunc nuw i8 %22 to i1
  br i1 %23, label %24, label %_ZN4Luau7CodeGen3A6418AssemblyBuilderA648placeBTREPKcRNS0_5LabelEhNS1_11RegisterA64Eh.exit

24:                                               ; preds = %_ZN4Luau7CodeGen3A6418AssemblyBuilderA646commitEv.exit.i
  %.sroa.0.0.copyload.i = load i64, ptr %3, align 4
  tail call void @_ZN4Luau7CodeGen3A6418AssemblyBuilderA643logEPKcNS1_11RegisterA64ENS0_5LabelEi(ptr noundef nonnull align 8 dereferenceable(176) %0, ptr noundef nonnull @.str.46, i8 %1, i64 %.sroa.0.0.copyload.i, i32 noundef %7)
  br label %_ZN4Luau7CodeGen3A6418AssemblyBuilderA648placeBTREPKcRNS0_5LabelEhNS1_11RegisterA64Eh.exit

_ZN4Luau7CodeGen3A6418AssemblyBuilderA648placeBTREPKcRNS0_5LabelEhNS1_11RegisterA64Eh.exit: ; preds = %_ZN4Luau7CodeGen3A6418AssemblyBuilderA646commitEv.exit.i, %24
  ret void
}